target datalayout = "e-m:e-p270:32:32-p271:32:32-p272:64:64-i64:64-f80:128-n8:16:32:64-S128"
target triple = "x86_64-pc-linux-gnu"

@.str = private unnamed_addr constant [5 x i8] c"%d%d\00", align 1
@m = common dso_local global i32 0, align 4
@n = common dso_local global i32 0, align 4
@.str.1 = private unnamed_addr constant [2 x i8] c"\0A\00", align 1
@.str.2 = private unnamed_addr constant [4 x i8] c"%d \00", align 1
@a = common dso_local global [100 x i32] zeroinitializer, align 16
@b = common dso_local global [100 x i32] zeroinitializer, align 16
@.str.3 = private unnamed_addr constant [3 x i8] c"%d\00", align 1

; Function Attrs: noinline nounwind uwtable
define dso_local void @input() #0 {
  %1 = alloca i32, align 4
  %2 = alloca i32, align 4
  %3 = call i32 (i8*, ...) @__isoc99_scanf(i8* getelementptr inbounds ([5 x i8], [5 x i8]* @.str, i64 0, i64 0), i32* @m, i32* @n)
  %4 = call i32 (i8*, ...) @__isoc99_scanf(i8* getelementptr inbounds ([2 x i8], [2 x i8]* @.str.1, i64 0, i64 0))
  store i32 0, i32* %1, align 4
  br label %5

5:                                                ; preds = %14, %0
  %6 = load i32, i32* %1, align 4
  %7 = load i32, i32* @m, align 4
  %8 = icmp slt i32 %6, %7
  br i1 %8, label %9, label %17

9:                                                ; preds = %5
  %10 = load i32, i32* %1, align 4
  %11 = sext i32 %10 to i64
  %12 = getelementptr inbounds [100 x i32], [100 x i32]* @a, i64 0, i64 %11
  %13 = call i32 (i8*, ...) @__isoc99_scanf(i8* getelementptr inbounds ([4 x i8], [4 x i8]* @.str.2, i64 0, i64 0), i32* %12)
  br label %14

14:                                               ; preds = %9
  %15 = load i32, i32* %1, align 4
  %16 = add nsw i32 %15, 1
  store i32 %16, i32* %1, align 4
  br label %5

17:                                               ; preds = %5
  store i32 0, i32* %2, align 4
  br label %18

18:                                               ; preds = %28, %17
  %19 = load i32, i32* %2, align 4
  %20 = load i32, i32* @n, align 4
  %21 = sub nsw i32 %20, 1
  %22 = icmp slt i32 %19, %21
  br i1 %22, label %23, label %31

23:                                               ; preds = %18
  %24 = load i32, i32* %2, align 4
  %25 = sext i32 %24 to i64
  %26 = getelementptr inbounds [100 x i32], [100 x i32]* @b, i64 0, i64 %25
  %27 = call i32 (i8*, ...) @__isoc99_scanf(i8* getelementptr inbounds ([4 x i8], [4 x i8]* @.str.2, i64 0, i64 0), i32* %26)
  br label %28

28:                                               ; preds = %23
  %29 = load i32, i32* %2, align 4
  %30 = add nsw i32 %29, 1
  store i32 %30, i32* %2, align 4
  br label %18

31:                                               ; preds = %18
  %32 = load i32, i32* @n, align 4
  %33 = sub nsw i32 %32, 1
  %34 = sext i32 %33 to i64
  %35 = getelementptr inbounds [100 x i32], [100 x i32]* @b, i64 0, i64 %34
  %36 = call i32 (i8*, ...) @__isoc99_scanf(i8* getelementptr inbounds ([3 x i8], [3 x i8]* @.str.3, i64 0, i64 0), i32* %35)
  ret void
}

; Function Attrs: noinline nounwind uwtable
define dso_local void @sort(i32* %0, i32 %1) #0 {
  %3 = alloca i32*, align 8
  %4 = alloca i32, align 4
  %5 = alloca i32, align 4
  %6 = alloca i32, align 4
  %7 = alloca i32, align 4
  store i32* %0, i32** %3, align 8
  store i32 %1, i32* %4, align 4
  store i32 0, i32* %6, align 4
  br label %8

8:                                                ; preds = %59, %2
  %9 = load i32, i32* %6, align 4
  %10 = load i32, i32* %4, align 4
  %11 = icmp slt i32 %9, %10
  br i1 %11, label %12, label %62

12:                                               ; preds = %8
  store i32 0, i32* %5, align 4
  br label %13

13:                                               ; preds = %55, %12
  %14 = load i32, i32* %5, align 4
  %15 = load i32, i32* %4, align 4
  %16 = load i32, i32* %6, align 4
  %17 = sub nsw i32 %15, %16
  %18 = icmp slt i32 %14, %17
  br i1 %18, label %19, label %58

19:                                               ; preds = %13
  %20 = load i32*, i32** %3, align 8
  %21 = load i32, i32* %5, align 4
  %22 = sext i32 %21 to i64
  %23 = getelementptr inbounds i32, i32* %20, i64 %22
  %24 = load i32, i32* %23, align 4
  %25 = load i32*, i32** %3, align 8
  %26 = load i32, i32* %5, align 4
  %27 = add nsw i32 %26, 1
  %28 = sext i32 %27 to i64
  %29 = getelementptr inbounds i32, i32* %25, i64 %28
  %30 = load i32, i32* %29, align 4
  %31 = icmp sgt i32 %24, %30
  br i1 %31, label %32, label %54

32:                                               ; preds = %19
  %33 = load i32*, i32** %3, align 8
  %34 = load i32, i32* %5, align 4
  %35 = sext i32 %34 to i64
  %36 = getelementptr inbounds i32, i32* %33, i64 %35
  %37 = load i32, i32* %36, align 4
  store i32 %37, i32* %7, align 4
  %38 = load i32*, i32** %3, align 8
  %39 = load i32, i32* %5, align 4
  %40 = add nsw i32 %39, 1
  %41 = sext i32 %40 to i64
  %42 = getelementptr inbounds i32, i32* %38, i64 %41
  %43 = load i32, i32* %42, align 4
  %44 = load i32*, i32** %3, align 8
  %45 = load i32, i32* %5, align 4
  %46 = sext i32 %45 to i64
  %47 = getelementptr inbounds i32, i32* %44, i64 %46
  store i32 %43, i32* %47, align 4
  %48 = load i32, i32* %7, align 4
  %49 = load i32*, i32** %3, align 8
  %50 = load i32, i32* %5, align 4
  %51 = add nsw i32 %50, 1
  %52 = sext i32 %51 to i64
  %53 = getelementptr inbounds i32, i32* %49, i64 %52
  store i32 %48, i32* %53, align 4
  br label %54

54:                                               ; preds = %32, %19
  br label %55

55:                                               ; preds = %54
  %56 = load i32, i32* %5, align 4
  %57 = add nsw i32 %56, 1
  store i32 %57, i32* %5, align 4
  br label %13

58:                                               ; preds = %13
  br label %59

59:                                               ; preds = %58
  %60 = load i32, i32* %6, align 4
  %61 = add nsw i32 %60, 1
  store i32 %61, i32* %6, align 4
  br label %8

62:                                               ; preds = %8
  ret void
}

; Function Attrs: noinline nounwind uwtable
define dso_local void @combine() #0 {
  %1 = alloca i32, align 4
  %2 = alloca i32, align 4
  store i32 0, i32* %2, align 4
  %3 = load i32, i32* @m, align 4
  store i32 %3, i32* %1, align 4
  br label %4

4:                                                ; preds = %20, %0
  %5 = load i32, i32* %1, align 4
  %6 = load i32, i32* @m, align 4
  %7 = load i32, i32* @n, align 4
  %8 = add nsw i32 %6, %7
  %9 = icmp slt i32 %5, %8
  br i1 %9, label %10, label %23

10:                                               ; preds = %4
  %11 = load i32, i32* %2, align 4
  %12 = sext i32 %11 to i64
  %13 = getelementptr inbounds [100 x i32], [100 x i32]* @b, i64 0, i64 %12
  %14 = load i32, i32* %13, align 4
  %15 = load i32, i32* %1, align 4
  %16 = sext i32 %15 to i64
  %17 = getelementptr inbounds [100 x i32], [100 x i32]* @a, i64 0, i64 %16
  store i32 %14, i32* %17, align 4
  %18 = load i32, i32* %2, align 4
  %19 = add nsw i32 %18, 1
  store i32 %19, i32* %2, align 4
  br label %20

20:                                               ; preds = %10
  %21 = load i32, i32* %1, align 4
  %22 = add nsw i32 %21, 1
  store i32 %22, i32* %1, align 4
  br label %4

23:                                               ; preds = %4
  ret void
}

; Function Attrs: noinline nounwind uwtable
define dso_local void @output() #0 {
  %1 = alloca i32, align 4
  store i32 0, i32* %1, align 4
  br label %2

2:                                                ; preds = %15, %0
  %3 = load i32, i32* %1, align 4
  %4 = load i32, i32* @m, align 4
  %5 = load i32, i32* @n, align 4
  %6 = add nsw i32 %4, %5
  %7 = sub nsw i32 %6, 1
  %8 = icmp slt i32 %3, %7
  br i1 %8, label %9, label %18

9:                                                ; preds = %2
  %10 = load i32, i32* %1, align 4
  %11 = sext i32 %10 to i64
  %12 = getelementptr inbounds [100 x i32], [100 x i32]* @a, i64 0, i64 %11
  %13 = load i32, i32* %12, align 4
  %14 = call i32 (i8*, ...) @printf(i8* getelementptr inbounds ([4 x i8], [4 x i8]* @.str.2, i64 0, i64 0), i32 %13)
  br label %15

15:                                               ; preds = %9
  %16 = load i32, i32* %1, align 4
  %17 = add nsw i32 %16, 1
  store i32 %17, i32* %1, align 4
  br label %2

18:                                               ; preds = %2
  %19 = load i32, i32* @m, align 4
  %20 = load i32, i32* @n, align 4
  %21 = add nsw i32 %19, %20
  %22 = sub nsw i32 %21, 1
  %23 = sext i32 %22 to i64
  %24 = getelementptr inbounds [100 x i32], [100 x i32]* @a, i64 0, i64 %23
  %25 = load i32, i32* %24, align 4
  %26 = call i32 (i8*, ...) @printf(i8* getelementptr inbounds ([3 x i8], [3 x i8]* @.str.3, i64 0, i64 0), i32 %25)
  ret void
}

; Function Attrs: noinline nounwind uwtable
define dso_local i32 @main() #0 {
  %1 = alloca i32, align 4
  store i32 0, i32* %1, align 4
  call void @input()
  %2 = load i32, i32* @m, align 4
  %3 = sub nsw i32 %2, 1
  call void @sort(i32* getelementptr inbounds ([100 x i32], [100 x i32]* @a, i64 0, i64 0), i32 %3)
  %4 = load i32, i32* @n, align 4
  %5 = sub nsw i32 %4, 1
  call void @sort(i32* getelementptr inbounds ([100 x i32], [100 x i32]* @b, i64 0, i64 0), i32 %5)
  call void @combine()
  call void @output()
  ret i32 0
}